; Function Attrs: mustprogress uwtable
define void @_ZNK6casadi18DaeBuilderInternal5inputENS_8CategoryE(ptr dead_on_unwind noalias writable sret(%"class.std::vector.68") align 8 %0, ptr noundef nonnull readonly align 8 captures(none) dereferenceable(1017) %1, i32 noundef %2) local_unnamed_addr #4 align 2 {
  %switch = icmp ult i32 %2, 10
  br i1 %switch, label %4, label %16

4:                                                ; preds = %3
  %5 = getelementptr inbounds nuw i8, ptr %1, i64 760
  %6 = zext nneg i32 %2 to i64
  %7 = getelementptr inbounds nuw i8, ptr %1, i64 768
  %8 = load ptr, ptr %7, align 8, !tbaa !209
  %9 = load ptr, ptr %5, align 8, !tbaa !206
  %10 = ptrtoint ptr %8 to i64
  %11 = ptrtoint ptr %9 to i64
  %12 = sub i64 %10, %11
  %13 = sdiv exact i64 %12, 24
  %.not.i.i.i.i = icmp ugt i64 %13, %6
  br i1 %.not.i.i.i.i, label %_ZNK6casadi18DaeBuilderInternal7indicesENS_8CategoryE.exit, label %14

14:                                               ; preds = %4
  tail call void (ptr, ...) @_ZSt24__throw_out_of_range_fmtPKcz(ptr noundef nonnull @.str.690, i64 noundef %6, i64 noundef %13) #29
  unreachable

_ZNK6casadi18DaeBuilderInternal7indicesENS_8CategoryE.exit: ; preds = %4
  %15 = getelementptr inbounds nuw %"class.std::vector.33", ptr %9, i64 %6
  tail call void @_ZNK6casadi18DaeBuilderInternal3varERKSt6vectorImSaImEE(ptr dead_on_unwind writable sret(%"class.std::vector.68") align 8 %0, ptr noundef nonnull align 8 dereferenceable(1017) %1, ptr noundef nonnull align 8 dereferenceable(24) %15)
  br label %17

16:                                               ; preds = %3
  tail call void @llvm.memset.p0.i64(ptr noundef nonnull align 8 dereferenceable(24) %0, i8 0, i64 24, i1 false)
  br label %17

17:                                               ; preds = %16, %_ZNK6casadi18DaeBuilderInternal7indicesENS_8CategoryE.exit
  ret void
}